target datalayout = "e-m:e-p270:32:32-p271:32:32-p272:64:64-i64:64-i128:128-f80:128-n8:16:32:64-S128"
target triple = "x86_64-pc-linux-gnu"

%"struct.Yosys::RTLIL::SigSpec" = type { i32, i32, %"class.std::vector.212", %"class.std::vector.217" }
%"class.std::vector.212" = type { %"struct.std::_Vector_base.213" }
%"struct.std::_Vector_base.213" = type { %"struct.std::_Vector_base<Yosys::RTLIL::SigChunk, std::allocator<Yosys::RTLIL::SigChunk>>::_Vector_impl" }
%"struct.std::_Vector_base<Yosys::RTLIL::SigChunk, std::allocator<Yosys::RTLIL::SigChunk>>::_Vector_impl" = type { %"struct.std::_Vector_base<Yosys::RTLIL::SigChunk, std::allocator<Yosys::RTLIL::SigChunk>>::_Vector_impl_data" }
%"struct.std::_Vector_base<Yosys::RTLIL::SigChunk, std::allocator<Yosys::RTLIL::SigChunk>>::_Vector_impl_data" = type { ptr, ptr, ptr }
%"class.std::vector.217" = type { %"struct.std::_Vector_base.218" }
%"struct.std::_Vector_base.218" = type { %"struct.std::_Vector_base<Yosys::RTLIL::SigBit, std::allocator<Yosys::RTLIL::SigBit>>::_Vector_impl" }
%"struct.std::_Vector_base<Yosys::RTLIL::SigBit, std::allocator<Yosys::RTLIL::SigBit>>::_Vector_impl" = type { %"struct.std::_Vector_base<Yosys::RTLIL::SigBit, std::allocator<Yosys::RTLIL::SigBit>>::_Vector_impl_data" }
%"struct.std::_Vector_base<Yosys::RTLIL::SigBit, std::allocator<Yosys::RTLIL::SigBit>>::_Vector_impl_data" = type { ptr, ptr, ptr }

; Function Attrs: mustprogress uwtable
define internal noundef ptr @_ZN12_GLOBAL__N_19SmvWorker8rvalue_uEN5Yosys5RTLIL7SigSpecEi(ptr noundef nonnull align 8 dereferenceable(528) %0, ptr noundef %1, i32 noundef %2) #4 align 2 personality ptr @__gxx_personality_v0 {
  %4 = alloca ptr, align 8
  %5 = alloca ptr, align 8
  %6 = alloca i32, align 4
  %7 = alloca %"struct.Yosys::RTLIL::SigSpec", align 8
  %8 = alloca ptr, align 8
  %9 = alloca i32, align 4
  store ptr %0, ptr %4, align 8, !tbaa !95
  store ptr %1, ptr %5, align 8, !tbaa !242
  store i32 %2, ptr %6, align 4, !tbaa !38
  %10 = load ptr, ptr %4, align 8
  call void @_ZN5Yosys5RTLIL7SigSpecC2ERKS1_(ptr noundef nonnull align 8 dereferenceable(56) %7, ptr noundef nonnull align 8 dereferenceable(56) %1)
  %11 = load i32, ptr %6, align 4, !tbaa !38
  %12 = invoke noundef ptr @_ZN12_GLOBAL__N_19SmvWorker6rvalueEN5Yosys5RTLIL7SigSpecEib(ptr noundef nonnull align 8 dereferenceable(528) %10, ptr noundef %7, i32 noundef %11, i1 noundef zeroext false)
          to label %13 unwind label %14

13:                                               ; preds = %3
  call void @_ZN5Yosys5RTLIL7SigSpecD2Ev(ptr noundef nonnull align 8 dereferenceable(56) %7) #3
  ret ptr %12

14:                                               ; preds = %3
  %15 = landingpad { ptr, i32 }
          cleanup
  %16 = extractvalue { ptr, i32 } %15, 0
  store ptr %16, ptr %8, align 8
  %17 = extractvalue { ptr, i32 } %15, 1
  store i32 %17, ptr %9, align 4
  call void @_ZN5Yosys5RTLIL7SigSpecD2Ev(ptr noundef nonnull align 8 dereferenceable(56) %7) #3
  br label %18

18:                                               ; preds = %14
  %19 = load ptr, ptr %8, align 8
  %20 = load i32, ptr %9, align 4
  %21 = insertvalue { ptr, i32 } poison, ptr %19, 0
  %22 = insertvalue { ptr, i32 } %21, i32 %20, 1
  resume { ptr, i32 } %22
}