; Function Attrs: mustprogress uwtable
define internal fastcc noundef ptr @_ZN12_GLOBAL__N_19SmvWorker8rvalue_uEN5Yosys5RTLIL7SigSpecEi(ptr noundef nonnull align 8 dereferenceable(528) %0, ptr noundef nonnull %1, i32 noundef %2) unnamed_addr #4 align 2 personality ptr @__gxx_personality_v0 {
  %4 = alloca %"struct.Yosys::RTLIL::SigSpec", align 8
  call void @_ZN5Yosys5RTLIL7SigSpecC2ERKS1_(ptr noundef nonnull align 8 dereferenceable(56) %4, ptr noundef nonnull align 8 dereferenceable(56) %1)
  %5 = invoke fastcc noundef ptr @_ZN12_GLOBAL__N_19SmvWorker6rvalueEN5Yosys5RTLIL7SigSpecEib(ptr noundef nonnull align 8 dereferenceable(528) %0, ptr noundef %4, i32 noundef %2, i1 noundef zeroext false)
          to label %6 unwind label %35

6:                                                ; preds = %3
  %7 = getelementptr inbounds nuw i8, ptr %4, i64 32
  %8 = load ptr, ptr %7, align 8, !tbaa !255
  %.not.i.i.i.i = icmp eq ptr %8, null
  br i1 %.not.i.i.i.i, label %_ZNSt6vectorIN5Yosys5RTLIL6SigBitESaIS2_EED2Ev.exit.i, label %9

9:                                                ; preds = %6
  %10 = getelementptr inbounds nuw i8, ptr %4, i64 48
  %11 = load ptr, ptr %10, align 8, !tbaa !258
  %12 = ptrtoint ptr %11 to i64
  %13 = ptrtoint ptr %8 to i64
  %14 = sub i64 %12, %13
  call void @_ZdlPvm(ptr noundef nonnull %8, i64 noundef %14) #30
  br label %_ZNSt6vectorIN5Yosys5RTLIL6SigBitESaIS2_EED2Ev.exit.i

_ZNSt6vectorIN5Yosys5RTLIL6SigBitESaIS2_EED2Ev.exit.i: ; preds = %9, %6
  %15 = getelementptr inbounds nuw i8, ptr %4, i64 8
  %16 = load ptr, ptr %15, align 8, !tbaa !259
  %17 = getelementptr inbounds nuw i8, ptr %4, i64 16
  %18 = load ptr, ptr %17, align 8, !tbaa !262
  %.not4.i.i.i.i.i = icmp eq ptr %16, %18
  br i1 %.not4.i.i.i.i.i, label %_ZSt8_DestroyIPN5Yosys5RTLIL8SigChunkES2_EvT_S4_RSaIT0_E.exit.i.i, label %.lr.ph.i.i.i.i.i

.lr.ph.i.i.i.i.i:                                 ; preds = %_ZNSt6vectorIN5Yosys5RTLIL6SigBitESaIS2_EED2Ev.exit.i, %_ZSt8_DestroyIN5Yosys5RTLIL8SigChunkEEvPT_.exit.i.i.i.i.i
  %.05.i.i.i.i.i = phi ptr [ %27, %_ZSt8_DestroyIN5Yosys5RTLIL8SigChunkEEvPT_.exit.i.i.i.i.i ], [ %16, %_ZNSt6vectorIN5Yosys5RTLIL6SigBitESaIS2_EED2Ev.exit.i ]
  %19 = getelementptr inbounds nuw i8, ptr %.05.i.i.i.i.i, i64 8
  %20 = load ptr, ptr %19, align 8, !tbaa !263
  %.not.i.i.i.i.i.i.i.i.i.i = icmp eq ptr %20, null
  br i1 %.not.i.i.i.i.i.i.i.i.i.i, label %_ZSt8_DestroyIN5Yosys5RTLIL8SigChunkEEvPT_.exit.i.i.i.i.i, label %21

21:                                               ; preds = %.lr.ph.i.i.i.i.i
  %22 = getelementptr inbounds nuw i8, ptr %.05.i.i.i.i.i, i64 24
  %23 = load ptr, ptr %22, align 8, !tbaa !265
  %24 = ptrtoint ptr %23 to i64
  %25 = ptrtoint ptr %20 to i64
  %26 = sub i64 %24, %25
  call void @_ZdlPvm(ptr noundef nonnull %20, i64 noundef %26) #30
  br label %_ZSt8_DestroyIN5Yosys5RTLIL8SigChunkEEvPT_.exit.i.i.i.i.i

_ZSt8_DestroyIN5Yosys5RTLIL8SigChunkEEvPT_.exit.i.i.i.i.i: ; preds = %21, %.lr.ph.i.i.i.i.i
  %27 = getelementptr inbounds nuw i8, ptr %.05.i.i.i.i.i, i64 40
  %.not.i.i.i.i.i = icmp eq ptr %27, %18
  br i1 %.not.i.i.i.i.i, label %_ZSt8_DestroyIPN5Yosys5RTLIL8SigChunkES2_EvT_S4_RSaIT0_E.exitthread-pre-split.i.i, label %.lr.ph.i.i.i.i.i, !llvm.loop !266

_ZSt8_DestroyIPN5Yosys5RTLIL8SigChunkES2_EvT_S4_RSaIT0_E.exitthread-pre-split.i.i: ; preds = %_ZSt8_DestroyIN5Yosys5RTLIL8SigChunkEEvPT_.exit.i.i.i.i.i
  %.pr.i.i = load ptr, ptr %15, align 8, !tbaa !259
  br label %_ZSt8_DestroyIPN5Yosys5RTLIL8SigChunkES2_EvT_S4_RSaIT0_E.exit.i.i

_ZSt8_DestroyIPN5Yosys5RTLIL8SigChunkES2_EvT_S4_RSaIT0_E.exit.i.i: ; preds = %_ZSt8_DestroyIPN5Yosys5RTLIL8SigChunkES2_EvT_S4_RSaIT0_E.exitthread-pre-split.i.i, %_ZNSt6vectorIN5Yosys5RTLIL6SigBitESaIS2_EED2Ev.exit.i
  %28 = phi ptr [ %.pr.i.i, %_ZSt8_DestroyIPN5Yosys5RTLIL8SigChunkES2_EvT_S4_RSaIT0_E.exitthread-pre-split.i.i ], [ %16, %_ZNSt6vectorIN5Yosys5RTLIL6SigBitESaIS2_EED2Ev.exit.i ]
  %.not.i.i.i1.i = icmp eq ptr %28, null
  br i1 %.not.i.i.i1.i, label %_ZN5Yosys5RTLIL7SigSpecD2Ev.exit, label %29

29:                                               ; preds = %_ZSt8_DestroyIPN5Yosys5RTLIL8SigChunkES2_EvT_S4_RSaIT0_E.exit.i.i
  %30 = getelementptr inbounds nuw i8, ptr %4, i64 24
  %31 = load ptr, ptr %30, align 8, !tbaa !267
  %32 = ptrtoint ptr %31 to i64
  %33 = ptrtoint ptr %28 to i64
  %34 = sub i64 %32, %33
  call void @_ZdlPvm(ptr noundef nonnull %28, i64 noundef %34) #30
  br label %_ZN5Yosys5RTLIL7SigSpecD2Ev.exit

_ZN5Yosys5RTLIL7SigSpecD2Ev.exit:                 ; preds = %_ZSt8_DestroyIPN5Yosys5RTLIL8SigChunkES2_EvT_S4_RSaIT0_E.exit.i.i, %29
  ret ptr %5

35:                                               ; preds = %3
  %36 = landingpad { ptr, i32 }
          cleanup
  call void @_ZN5Yosys5RTLIL7SigSpecD2Ev(ptr noundef nonnull align 8 dereferenceable(56) %4) #29
  resume { ptr, i32 } %36
}